Certificate:
    Data:
        Version: 3 (0x2)
        Serial Number: 1 (0x1)
        Signature Algorithm: sha256WithRSAEncryption
        Issuer: C=US, O=Google, OU=Enterprise, CN=Enterprise Root CA
        Validity
            Not Before: Aug 25 17:13:27 2023 GMT
            Not After : Aug 24 17:13:27 2033 GMT
        Subject: C=US, O=Google, OU=Enterprise, CN=Enterprise Root CA
        Subject Public Key Info:
            Public Key Algorithm: rsaEncryption
                Public-Key: (2048 bit)
                Modulus:
                    00:bc:74:31:c0:1c:a2:58:89:68:15:ad:40:3c:75:
                    ba:3f:77:a6:7c:25:22:ec:8e:bf:2c:26:c2:f6:3a:
                    2b:aa:d1:c1:02:dc:2f:0d:0b:3d:3c:23:4b:d0:37:
                    79:92:36:9c:88:ea:0e:46:a9:ea:48:1f:3c:23:be:
                    83:53:0a:6c:29:a9:2f:6e:c4:6e:e5:7d:97:df:f4:
                    8c:52:96:cb:6f:04:92:34:7f:0d:01:78:88:41:bb:
                    83:62:8b:5d:0a:2c:1a:f7:fb:76:aa:9b:86:37:2b:
                    9c:57:eb:a6:d7:a4:56:2a:32:95:75:e9:be:ec:c4:
                    32:d9:c8:d3:fa:ea:d3:14:bb:3f:f2:0c:b3:d2:0b:
                    05:ff:88:3f:4a:be:c3:bb:da:7f:67:19:52:d4:84:
                    c6:59:df:62:a4:8e:12:c2:57:49:8c:b6:95:d5:c0:
                    a8:65:bc:b3:30:45:0c:17:e7:89:23:3e:a2:a8:10:
                    c9:e8:84:52:28:e8:d7:68:ae:4f:3b:e2:dd:ad:02:
                    11:3d:75:16:23:3f:fe:3d:0d:8f:b6:93:b9:4b:62:
                    15:28:a2:1a:0b:bb:eb:4a:22:69:59:d2:a8:f5:05:
                    55:5c:72:91:60:70:53:b7:70:3a:da:53:3e:89:4d:
                    4d:d9:ed:f2:c6:da:5f:e8:c7:80:5e:dc:b6:48:9c:
                    f5:0d
                Exponent: 65537 (0x10001)
        X509v3 extensions:
            X509v3 Key Usage: critical
                Certificate Sign, CRL Sign
            X509v3 Basic Constraints: critical
                CA:TRUE
            X509v3 Subject Key Identifier: 
                EA:AE:CD:0B:91:9B:F2:7E:95:AF:C0:2C:08:FE:46:22:6C:6F:61:F0
            X509v3 Authority Key Identifier: 
                EA:AE:CD:0B:91:9B:F2:7E:95:AF:C0:2C:08:FE:46:22:6C:6F:61:F0
            X509v3 Extended Key Usage: 
                TLS Web Server Authentication, TLS Web Client Authentication
    Signature Algorithm: sha256WithRSAEncryption
    Signature Value:
        49:37:3d:8f:82:bf:9b:2b:8a:6e:a8:e3:e9:fc:9d:d0:14:a0:
        49:c6:e8:ec:81:6d:c2:e8:0c:19:89:62:23:b2:64:f4:8f:cb:
        a8:9c:0e:bd:3b:aa:86:e1:7d:fa:6b:0e:73:d9:19:5c:af:73:
        e4:d9:dd:64:21:a6:ec:e9:3a:5b:a0:94:7b:da:a0:1c:07:20:
        ea:5f:61:b6:19:a7:7a:e6:28:3a:d9:4f:b3:de:f4:f4:42:47:
        88:f2:28:d7:b9:8a:3b:4a:c2:ec:3a:d8:9f:5d:5c:6e:d5:c9:
        c6:92:b0:a2:5c:b7:d5:2e:64:0d:a8:d6:b3:96:d1:b7:fd:a7:
        2b:d0:42:e0:e3:fd:04:bd:cb:1c:5d:a7:22:bb:14:e0:f1:29:
        11:84:6e:a3:94:42:76:52:98:b8:c4:08:1c:1b:03:2e:45:c6:
        21:b3:51:b2:54:13:15:1e:5c:ba:ed:19:6a:ad:43:45:46:00:
        c7:a9:a8:a5:a3:63:b8:6a:36:5f:3a:d0:1c:6e:c7:f0:fa:5a:
        52:9f:49:a3:d5:f2:d7:1f:1c:84:5b:11:45:04:a5:e5:b2:b1:
        51:be:1d:83:0b:24:e6:ba:f5:de:9c:25:90:50:f0:6d:be:88:
        24:62:a7:82:d4:a1:50:94:4a:9c:11:14:94:5b:53:94:35:bc:
        db:79:0d:f3
-----BEGIN CERTIFICATE-----
MIIDnzCCAoegAwIBAgIBATANBgkqhkiG9w0BAQsFADBQMQswCQYDVQQGEwJVUzEP
MA0GA1UECgwGR29vZ2xlMRMwEQYDVQQLDApFbnRlcnByaXNlMRswGQYDVQQDDBJF
bnRlcnByaXNlIFJvb3QgQ0EwHhcNMjMwODI1MTcxMzI3WhcNMzMwODI0MTcxMzI3
WjBQMQswCQYDVQQGEwJVUzEPMA0GA1UECgwGR29vZ2xlMRMwEQYDVQQLDApFbnRl
cnByaXNlMRswGQYDVQQDDBJFbnRlcnByaXNlIFJvb3QgQ0EwggEiMA0GCSqGSIb3
DQEBAQUAA4IBDwAwggEKAoIBAQC8dDHAHKJYiWgVrUA8dbo/d6Z8JSLsjr8sJsL2
Oiuq0cEC3C8NCz08I0vQN3mSNpyI6g5GqepIHzwjvoNTCmwpqS9uxG7lfZff9IxS
lstvBJI0fw0BeIhBu4Nii10KLBr3+3aqm4Y3K5xX66bXpFYqMpV16b7sxDLZyNP6
6tMUuz/yDLPSCwX/iD9KvsO72n9nGVLUhMZZ32KkjhLCV0mMtpXVwKhlvLMwRQwX
54kjPqKoEMnohFIo6Ndork874t2tAhE9dRYjP/49DY+2k7lLYhUoohoLu+tKImlZ
0qj1BVVccpFgcFO3cDraUz6JTU3Z7fLG2l/ox4Be3LZInPUNAgMBAAGjgYMwgYAw
DgYDVR0PAQH/BAQDAgEGMA8GA1UdEwEB/wQFMAMBAf8wHQYDVR0OBBYEFOquzQuR
m/J+la/ALAj+RiJsb2HwMB8GA1UdIwQYMBaAFOquzQuRm/J+la/ALAj+RiJsb2Hw
MB0GA1UdJQQWMBQGCCsGAQUFBwMBBggrBgEFBQcDAjANBgkqhkiG9w0BAQsFAAOC
AQEASTc9j4K/myuKbqjj6fyd0BSgScbo7IFtwugMGYliI7Jk9I/LqJwOvTuqhuF9
+msOc9kZXK9z5NndZCGm7Ok6W6CUe9qgHAcg6l9hthmneuYoOtlPs9709EJHiPIo
17mKO0rC7DrYn11cbtXJxpKwoly31S5kDajWs5bRt/2nK9BC4OP9BL3LHF2nIrsU
4PEpEYRuo5RCdlKYuMQIHBsDLkXGIbNRslQTFR5cuu0Zaq1DRUYAx6mopaNjuGo2
XzrQHG7H8PpaUp9Jo9Xy1x8chFsRRQSl5bKxUb4dgwsk5rr13pwlkFDwbb6IJGKn
gtShUJRKnBEUlFtTlDW823kN8w==
-----END CERTIFICATE-----
