Certificate:
    Data:
        Version: 3 (0x2)
        Serial Number: 2 (0x2)
        Signature Algorithm: sha256WithRSAEncryption
        Issuer: C=US, O=Google, OU=Enterprise, CN=Enterprise Root CA
        Validity
            Not Before: Aug  7 13:22:47 2021 GMT
            Not After : Aug  7 13:22:47 2031 GMT
        Subject: C=US, O=Google, OU=Enterprise, CN=Enterprise Subordinate CA
        Subject Public Key Info:
            Public Key Algorithm: rsaEncryption
                RSA Public-Key: (2048 bit)
                Modulus:
                    00:a2:31:6a:33:6c:90:29:e8:f3:e6:03:32:35:da:
                    8f:da:2a:f3:09:a0:7d:b2:f0:37:f0:17:a8:73:32:
                    5f:4e:75:80:74:ab:06:cd:5d:6f:85:e2:b4:05:26:
                    55:35:39:e2:90:91:4b:68:69:19:8d:1a:fa:d9:1a:
                    15:6c:3f:49:b4:b0:9c:0a:99:69:08:c7:ea:1d:b5:
                    6e:d8:99:ba:03:30:4c:74:ba:dc:7e:2c:d2:36:5b:
                    a4:2c:b2:9a:c2:b7:fb:db:4d:d6:52:d8:af:fa:d6:
                    a7:ed:a1:43:aa:c3:79:e5:f8:61:8c:2b:a6:c9:93:
                    1c:6e:f8:90:c9:fd:2a:55:83:df:3e:b8:9f:32:39:
                    91:62:0a:11:13:c9:5e:93:33:69:ba:c8:f5:3b:bb:
                    33:bb:fe:7a:92:49:ea:e7:65:2d:91:1d:6e:5a:77:
                    ce:69:88:e7:aa:af:3e:1f:82:e5:0b:e8:44:fd:c4:
                    a4:9f:b3:c4:43:0c:8a:77:67:d4:87:c1:53:93:37:
                    b9:77:f2:03:45:f9:49:df:de:fb:fa:e3:57:3e:3e:
                    56:f4:96:77:5b:b0:f2:93:fb:a2:da:24:b5:c0:a7:
                    4a:9e:b3:dc:89:dc:e2:33:de:03:58:67:f4:4d:9e:
                    d6:51:ad:23:ef:5b:67:57:db:59:a2:7d:84:0d:91:
                    01:21
                Exponent: 65537 (0x10001)
        X509v3 extensions:
            X509v3 Key Usage: critical
                Certificate Sign, CRL Sign
            X509v3 Basic Constraints: critical
                CA:TRUE, pathlen:0
            X509v3 Subject Key Identifier: 
                D1:3C:46:A0:80:CA:CF:89:DA:44:01:88:FA:80:B1:9C:EB:56:DD:B7
            X509v3 Authority Key Identifier: 
                keyid:FE:D2:44:DD:86:FD:89:8F:0D:C8:94:9F:AB:5D:45:4E:B1:91:64:FF

            Authority Information Access: 
                CA Issuers - URI:http://pki.esodemoapp2.com/ca/root-ca.cer

            X509v3 CRL Distribution Points: 

                Full Name:
                  URI:http://pki.esodemoapp2.com/ca/root-ca.crl

    Signature Algorithm: sha256WithRSAEncryption
         98:83:87:6f:d5:8c:d7:d9:b0:5e:8d:4e:b2:ed:ef:79:d9:cc:
         97:84:f6:eb:e9:cd:3a:ba:a2:7f:38:aa:74:66:f6:18:0c:49:
         b0:34:09:d5:6e:15:5b:22:02:5f:46:a7:68:6d:2d:81:37:79:
         8a:7e:92:1b:70:9a:80:2d:e9:85:60:87:32:8b:ec:b1:b8:48:
         1d:d4:69:d4:8a:79:ae:e8:fd:4c:b4:cc:16:c1:9c:e2:93:51:
         8e:50:ce:3d:89:50:37:c1:9c:c4:00:d4:a6:d1:2d:88:54:ea:
         f3:79:ae:ec:c2:15:5d:96:99:a5:39:bd:5d:ae:d8:08:de:cf:
         78:aa:6b:37:dd:39:29:46:b5:7a:e0:ae:7a:57:8d:f1:89:e1:
         41:71:29:a0:00:99:00:79:70:ac:21:41:82:48:84:2b:4e:da:
         27:11:9f:54:fd:5e:df:74:b8:67:56:80:0b:48:da:d6:4f:05:
         57:d3:93:ed:b0:d2:f2:36:82:48:46:e0:2f:79:72:0d:ce:64:
         4a:a1:59:69:37:8e:6d:3d:e1:37:8c:f4:09:0c:1c:b4:70:40:
         d6:be:c6:72:56:6a:29:d1:0c:c8:9d:52:86:66:2c:14:b6:0a:
         96:a3:39:2a:43:49:b2:1b:6a:d3:4d:e4:83:41:0f:4e:8b:97:
         92:d8:6b:b4
-----BEGIN CERTIFICATE-----
MIIEDTCCAvWgAwIBAgIBAjANBgkqhkiG9w0BAQsFADBQMQswCQYDVQQGEwJVUzEP
MA0GA1UECgwGR29vZ2xlMRMwEQYDVQQLDApFbnRlcnByaXNlMRswGQYDVQQDDBJF
bnRlcnByaXNlIFJvb3QgQ0EwHhcNMjEwODA3MTMyMjQ3WhcNMzEwODA3MTMyMjQ3
WjBXMQswCQYDVQQGEwJVUzEPMA0GA1UECgwGR29vZ2xlMRMwEQYDVQQLDApFbnRl
cnByaXNlMSIwIAYDVQQDDBlFbnRlcnByaXNlIFN1Ym9yZGluYXRlIENBMIIBIjAN
BgkqhkiG9w0BAQEFAAOCAQ8AMIIBCgKCAQEAojFqM2yQKejz5gMyNdqP2irzCaB9
svA38BeoczJfTnWAdKsGzV1vheK0BSZVNTnikJFLaGkZjRr62RoVbD9JtLCcCplp
CMfqHbVu2Jm6AzBMdLrcfizSNlukLLKawrf7203WUtiv+tan7aFDqsN55fhhjCum
yZMcbviQyf0qVYPfPrifMjmRYgoRE8lekzNpusj1O7szu/56kknq52UtkR1uWnfO
aYjnqq8+H4LlC+hE/cSkn7PEQwyKd2fUh8FTkze5d/IDRflJ3977+uNXPj5W9JZ3
W7Dyk/ui2iS1wKdKnrPcidziM94DWGf0TZ7WUa0j71tnV9tZon2EDZEBIQIDAQAB
o4HqMIHnMA4GA1UdDwEB/wQEAwIBBjASBgNVHRMBAf8ECDAGAQH/AgEAMB0GA1Ud
DgQWBBTRPEaggMrPidpEAYj6gLGc61bdtzAfBgNVHSMEGDAWgBT+0kTdhv2Jjw3I
lJ+rXUVOsZFk/zBFBggrBgEFBQcBAQQ5MDcwNQYIKwYBBQUHMAKGKWh0dHA6Ly9w
a2kuZXNvZGVtb2FwcDIuY29tL2NhL3Jvb3QtY2EuY2VyMDoGA1UdHwQzMDEwL6At
oCuGKWh0dHA6Ly9wa2kuZXNvZGVtb2FwcDIuY29tL2NhL3Jvb3QtY2EuY3JsMA0G
CSqGSIb3DQEBCwUAA4IBAQCYg4dv1YzX2bBejU6y7e952cyXhPbr6c06uqJ/OKp0
ZvYYDEmwNAnVbhVbIgJfRqdobS2BN3mKfpIbcJqALemFYIcyi+yxuEgd1GnUinmu
6P1MtMwWwZzik1GOUM49iVA3wZzEANSm0S2IVOrzea7swhVdlpmlOb1drtgI3s94
qms33TkpRrV64K56V43xieFBcSmgAJkAeXCsIUGCSIQrTtonEZ9U/V7fdLhnVoAL
SNrWTwVX05PtsNLyNoJIRuAveXINzmRKoVlpN45tPeE3jPQJDBy0cEDWvsZyVmop
0QzInVKGZiwUtgqWozkqQ0myG2rTTeSDQQ9Oi5eS2Gu0
-----END CERTIFICATE-----
