Certificate:
    Data:
        Version: 3 (0x2)
        Serial Number: 2 (0x2)
        Signature Algorithm: sha256WithRSAEncryption
        Issuer: C=US, O=Google, OU=Enterprise, CN=Enterprise Subordinate CA
        Validity
            Not Before: Aug  7 13:24:25 2021 GMT
            Not After : Aug  7 13:24:25 2023 GMT
        Subject: C=US, O=Google, OU=Enterprise, CN=client@domain.com
        Subject Public Key Info:
            Public Key Algorithm: rsaEncryption
                RSA Public-Key: (2048 bit)
                Modulus:
                    00:b7:e4:8d:84:2c:3b:21:08:be:37:99:d6:0f:49:
                    94:69:6b:2e:5b:64:3c:f4:79:ef:4b:d7:ec:f4:77:
                    25:7c:18:dc:ad:8f:00:88:19:a2:e4:94:50:d9:9f:
                    e7:45:89:d7:c4:61:44:a0:0f:50:c4:fe:13:63:79:
                    aa:6f:06:e1:73:08:e2:25:ef:e2:e6:a6:71:c4:32:
                    ed:7d:e8:b1:6f:64:dd:59:7f:ab:e9:a1:c8:d7:b1:
                    3e:8c:7a:df:54:a4:47:8c:3e:03:37:76:c9:00:ce:
                    a0:15:87:e0:ab:d0:4d:64:78:d6:54:21:a8:41:37:
                    88:6c:e0:83:52:b1:67:b6:28:d0:b2:e3:aa:4d:59:
                    25:c8:b5:1b:23:af:71:f4:60:d2:7c:23:c6:91:74:
                    58:78:bf:f2:1b:e0:da:bd:7b:f4:61:63:fc:47:21:
                    a0:60:1d:b3:f0:b8:88:cf:56:41:a0:38:15:b9:f2:
                    0a:1e:ed:09:d2:d8:df:c4:d3:32:99:1a:07:d5:b5:
                    59:10:47:fb:d1:d4:3f:d0:7e:fe:73:97:14:c9:fc:
                    04:ea:3a:4b:ba:99:d2:a4:16:d4:a4:60:3f:c5:a4:
                    2c:38:a9:fb:05:b0:15:4e:71:14:12:34:69:dd:8b:
                    03:35:6a:e3:95:94:e1:67:f3:5c:d6:b0:8c:2b:c2:
                    85:4b
                Exponent: 65537 (0x10001)
        X509v3 extensions:
            X509v3 Key Usage: critical
                Digital Signature
            X509v3 Basic Constraints: 
                CA:FALSE
            X509v3 Extended Key Usage: 
                TLS Web Client Authentication
            X509v3 Subject Key Identifier: 
                B7:40:76:7A:26:7E:9D:76:E1:85:AF:B2:73:C8:1D:A6:94:0B:29:DB
            X509v3 Authority Key Identifier: 
                keyid:D1:3C:46:A0:80:CA:CF:89:DA:44:01:88:FA:80:B1:9C:EB:56:DD:B7

            Authority Information Access: 
                CA Issuers - URI:http://pki.esodemoapp2.com/ca/tls-ca.cer

            X509v3 CRL Distribution Points: 

                Full Name:
                  URI:http://pki.esodemoapp2.com/ca/tls-ca.crl

            X509v3 Subject Alternative Name: 
                <EMPTY>

    Signature Algorithm: sha256WithRSAEncryption
         69:38:19:e1:29:88:83:0a:ec:88:fa:da:68:d7:fd:f9:47:0b:
         a0:35:a6:fd:2e:5f:a9:b2:27:ae:6e:e1:a3:7f:79:18:20:e5:
         3f:52:d1:7f:39:f6:3e:74:5c:9d:d2:be:22:d6:e8:43:e2:a5:
         48:dd:0a:31:56:f5:ab:17:d0:12:ae:d4:a5:11:b9:23:a7:3e:
         1c:2c:a7:f1:ac:11:2d:b8:19:0a:0a:4d:3e:70:7a:29:90:9b:
         04:df:fc:31:8b:c7:58:2c:03:ee:53:c7:f8:ce:ab:39:e9:79:
         a8:13:ce:30:a7:d2:4c:61:f8:0e:6d:ed:14:66:f2:4d:ad:2f:
         2b:d1:d2:d9:d0:25:7b:04:3a:51:b3:be:12:e8:fe:a8:d5:23:
         60:b6:5c:04:2a:31:0a:77:2f:70:fd:34:bd:d0:f6:8b:a0:0a:
         15:49:84:3f:5a:fb:c7:dc:ce:87:96:25:8a:de:10:cb:99:6a:
         7e:94:fb:ac:8f:c4:38:9b:55:4e:85:a4:c2:ed:06:0d:c1:9e:
         7c:aa:6b:e5:57:9c:34:8f:df:bf:5f:16:bd:42:89:59:20:a4:
         58:d8:3e:39:f3:a5:a3:e4:da:98:69:36:a1:36:0e:1a:23:7a:
         d1:df:8e:b3:a6:ce:af:de:dd:c0:5a:66:18:3e:0d:44:b2:c6:
         ad:92:a6:c3
-----BEGIN CERTIFICATE-----
MIIEITCCAwmgAwIBAgIBAjANBgkqhkiG9w0BAQsFADBXMQswCQYDVQQGEwJVUzEP
MA0GA1UECgwGR29vZ2xlMRMwEQYDVQQLDApFbnRlcnByaXNlMSIwIAYDVQQDDBlF
bnRlcnByaXNlIFN1Ym9yZGluYXRlIENBMB4XDTIxMDgwNzEzMjQyNVoXDTIzMDgw
NzEzMjQyNVowTzELMAkGA1UEBhMCVVMxDzANBgNVBAoMBkdvb2dsZTETMBEGA1UE
CwwKRW50ZXJwcmlzZTEaMBgGA1UEAwwRY2xpZW50QGRvbWFpbi5jb20wggEiMA0G
CSqGSIb3DQEBAQUAA4IBDwAwggEKAoIBAQC35I2ELDshCL43mdYPSZRpay5bZDz0
ee9L1+z0dyV8GNytjwCIGaLklFDZn+dFidfEYUSgD1DE/hNjeapvBuFzCOIl7+Lm
pnHEMu196LFvZN1Zf6vpocjXsT6Met9UpEeMPgM3dskAzqAVh+Cr0E1keNZUIahB
N4hs4INSsWe2KNCy46pNWSXItRsjr3H0YNJ8I8aRdFh4v/Ib4Nq9e/RhY/xHIaBg
HbPwuIjPVkGgOBW58goe7QnS2N/E0zKZGgfVtVkQR/vR1D/Qfv5zlxTJ/ATqOku6
mdKkFtSkYD/FpCw4qfsFsBVOcRQSNGndiwM1auOVlOFn81zWsIwrwoVLAgMBAAGj
gf8wgfwwDgYDVR0PAQH/BAQDAgeAMAkGA1UdEwQCMAAwEwYDVR0lBAwwCgYIKwYB
BQUHAwIwHQYDVR0OBBYEFLdAdnomfp124YWvsnPIHaaUCynbMB8GA1UdIwQYMBaA
FNE8RqCAys+J2kQBiPqAsZzrVt23MEQGCCsGAQUFBwEBBDgwNjA0BggrBgEFBQcw
AoYoaHR0cDovL3BraS5lc29kZW1vYXBwMi5jb20vY2EvdGxzLWNhLmNlcjA5BgNV
HR8EMjAwMC6gLKAqhihodHRwOi8vcGtpLmVzb2RlbW9hcHAyLmNvbS9jYS90bHMt
Y2EuY3JsMAkGA1UdEQQCMAAwDQYJKoZIhvcNAQELBQADggEBAGk4GeEpiIMK7Ij6
2mjX/flHC6A1pv0uX6myJ65u4aN/eRgg5T9S0X859j50XJ3SviLW6EPipUjdCjFW
9asX0BKu1KURuSOnPhwsp/GsES24GQoKTT5weimQmwTf/DGLx1gsA+5Tx/jOqznp
eagTzjCn0kxh+A5t7RRm8k2tLyvR0tnQJXsEOlGzvhLo/qjVI2C2XAQqMQp3L3D9
NL3Q9ougChVJhD9a+8fczoeWJYreEMuZan6U+6yPxDibVU6FpMLtBg3Bnnyqa+VX
nDSP379fFr1CiVkgpFjYPjnzpaPk2phpNqE2DhojetHfjrOmzq/e3cBaZhg+DUSy
xq2SpsM=
-----END CERTIFICATE-----
